target datalayout = "e-m:e-p270:32:32-p271:32:32-p272:64:64-i64:64-i128:128-f80:128-n8:16:32:64-S128"
target triple = "x86_64-pc-linux-gnu"

%struct.lv_sdl_keyboard_t = type { [32 x i8], i8 }
%struct.lv_indev_data_t = type { %struct.lv_point_t, i32, i32, i16, i32, i8 }
%struct.lv_point_t = type { i32, i32 }

; Function Attrs: nounwind uwtable
define internal void @sdl_keyboard_read(ptr noundef %0, ptr noundef %1) #0 {
  %3 = alloca ptr, align 8
  %4 = alloca ptr, align 8
  %5 = alloca ptr, align 8
  %6 = alloca i64, align 8
  store ptr %0, ptr %3, align 8, !tbaa !3
  store ptr %1, ptr %4, align 8, !tbaa !3
  call void @llvm.lifetime.start.p0(i64 8, ptr %5) #4
  %7 = load ptr, ptr %3, align 8, !tbaa !3
  %8 = call ptr @lv_indev_get_driver_data(ptr noundef %7)
  store ptr %8, ptr %5, align 8, !tbaa !3
  call void @llvm.lifetime.start.p0(i64 8, ptr %6) #4
  %9 = load ptr, ptr %5, align 8, !tbaa !3
  %10 = getelementptr inbounds nuw %struct.lv_sdl_keyboard_t, ptr %9, i32 0, i32 0
  %11 = getelementptr inbounds [32 x i8], ptr %10, i64 0, i64 0
  %12 = call i64 @lv_strlen(ptr noundef %11)
  store i64 %12, ptr %6, align 8, !tbaa !7
  %13 = load ptr, ptr %5, align 8, !tbaa !3
  %14 = getelementptr inbounds nuw %struct.lv_sdl_keyboard_t, ptr %13, i32 0, i32 1
  %15 = load i8, ptr %14, align 1, !tbaa !9, !range !12, !noundef !13
  %16 = trunc i8 %15 to i1
  br i1 %16, label %17, label %22

17:                                               ; preds = %2
  %18 = load ptr, ptr %5, align 8, !tbaa !3
  %19 = getelementptr inbounds nuw %struct.lv_sdl_keyboard_t, ptr %18, i32 0, i32 1
  store i8 0, ptr %19, align 1, !tbaa !9
  %20 = load ptr, ptr %4, align 8, !tbaa !3
  %21 = getelementptr inbounds nuw %struct.lv_indev_data_t, ptr %20, i32 0, i32 4
  store i32 0, ptr %21, align 4, !tbaa !14
  br label %47

22:                                               ; preds = %2
  %23 = load i64, ptr %6, align 8, !tbaa !7
  %24 = icmp ugt i64 %23, 0
  br i1 %24, label %25, label %46

25:                                               ; preds = %22
  %26 = load ptr, ptr %5, align 8, !tbaa !3
  %27 = getelementptr inbounds nuw %struct.lv_sdl_keyboard_t, ptr %26, i32 0, i32 1
  store i8 1, ptr %27, align 1, !tbaa !9
  %28 = load ptr, ptr %4, align 8, !tbaa !3
  %29 = getelementptr inbounds nuw %struct.lv_indev_data_t, ptr %28, i32 0, i32 4
  store i32 1, ptr %29, align 4, !tbaa !14
  %30 = load ptr, ptr %5, align 8, !tbaa !3
  %31 = getelementptr inbounds nuw %struct.lv_sdl_keyboard_t, ptr %30, i32 0, i32 0
  %32 = getelementptr inbounds [32 x i8], ptr %31, i64 0, i64 0
  %33 = load i8, ptr %32, align 1, !tbaa !19
  %34 = sext i8 %33 to i32
  %35 = load ptr, ptr %4, align 8, !tbaa !3
  %36 = getelementptr inbounds nuw %struct.lv_indev_data_t, ptr %35, i32 0, i32 1
  store i32 %34, ptr %36, align 4, !tbaa !20
  %37 = load ptr, ptr %5, align 8, !tbaa !3
  %38 = getelementptr inbounds nuw %struct.lv_sdl_keyboard_t, ptr %37, i32 0, i32 0
  %39 = getelementptr inbounds [32 x i8], ptr %38, i64 0, i64 0
  %40 = load ptr, ptr %5, align 8, !tbaa !3
  %41 = getelementptr inbounds nuw %struct.lv_sdl_keyboard_t, ptr %40, i32 0, i32 0
  %42 = getelementptr inbounds [32 x i8], ptr %41, i64 0, i64 0
  %43 = getelementptr inbounds i8, ptr %42, i64 1
  %44 = load i64, ptr %6, align 8, !tbaa !7
  %45 = call ptr @lv_memmove(ptr noundef %39, ptr noundef %43, i64 noundef %44)
  br label %46

46:                                               ; preds = %25, %22
  br label %47

47:                                               ; preds = %46, %17
  call void @llvm.lifetime.end.p0(i64 8, ptr %6) #4
  call void @llvm.lifetime.end.p0(i64 8, ptr %5) #4
  ret void
}