; Function Attrs: nounwind uwtable
define internal void @sdl_keyboard_read(ptr noundef %0, ptr nocapture noundef writeonly %1) #0 {
  %3 = tail call ptr @lv_indev_get_driver_data(ptr noundef %0) #3
  %4 = tail call i64 @lv_strlen(ptr noundef %3) #3
  %5 = getelementptr inbounds nuw i8, ptr %3, i64 32
  %6 = load i8, ptr %5, align 1, !tbaa !3, !range !8, !noundef !9
  %7 = trunc nuw i8 %6 to i1
  br i1 %7, label %8, label %10

8:                                                ; preds = %2
  store i8 0, ptr %5, align 1, !tbaa !3
  %9 = getelementptr inbounds nuw i8, ptr %1, i64 20
  store i32 0, ptr %9, align 4, !tbaa !10
  br label %18

10:                                               ; preds = %2
  %.not = icmp eq i64 %4, 0
  br i1 %.not, label %18, label %11

11:                                               ; preds = %10
  store i8 1, ptr %5, align 1, !tbaa !3
  %12 = getelementptr inbounds nuw i8, ptr %1, i64 20
  store i32 1, ptr %12, align 4, !tbaa !10
  %13 = load i8, ptr %3, align 1, !tbaa !15
  %14 = sext i8 %13 to i32
  %15 = getelementptr inbounds nuw i8, ptr %1, i64 8
  store i32 %14, ptr %15, align 4, !tbaa !16
  %16 = getelementptr inbounds i8, ptr %3, i64 1
  %17 = tail call ptr @lv_memmove(ptr noundef nonnull %3, ptr noundef nonnull %16, i64 noundef %4) #3
  br label %18

18:                                               ; preds = %10, %11, %8
  ret void
}